target datalayout = "e-m:e-p270:32:32-p271:32:32-p272:64:64-i64:64-i128:128-f80:128-n8:16:32:64-S128"
target triple = "x86_64-pc-linux-gnu"

%struct.JNINativeInterface_ = type { ptr, ptr, ptr, ptr, ptr, ptr, ptr, ptr, ptr, ptr, ptr, ptr, ptr, ptr, ptr, ptr, ptr, ptr, ptr, ptr, ptr, ptr, ptr, ptr, ptr, ptr, ptr, ptr, ptr, ptr, ptr, ptr, ptr, ptr, ptr, ptr, ptr, ptr, ptr, ptr, ptr, ptr, ptr, ptr, ptr, ptr, ptr, ptr, ptr, ptr, ptr, ptr, ptr, ptr, ptr, ptr, ptr, ptr, ptr, ptr, ptr, ptr, ptr, ptr, ptr, ptr, ptr, ptr, ptr, ptr, ptr, ptr, ptr, ptr, ptr, ptr, ptr, ptr, ptr, ptr, ptr, ptr, ptr, ptr, ptr, ptr, ptr, ptr, ptr, ptr, ptr, ptr, ptr, ptr, ptr, ptr, ptr, ptr, ptr, ptr, ptr, ptr, ptr, ptr, ptr, ptr, ptr, ptr, ptr, ptr, ptr, ptr, ptr, ptr, ptr, ptr, ptr, ptr, ptr, ptr, ptr, ptr, ptr, ptr, ptr, ptr, ptr, ptr, ptr, ptr, ptr, ptr, ptr, ptr, ptr, ptr, ptr, ptr, ptr, ptr, ptr, ptr, ptr, ptr, ptr, ptr, ptr, ptr, ptr, ptr, ptr, ptr, ptr, ptr, ptr, ptr, ptr, ptr, ptr, ptr, ptr, ptr, ptr, ptr, ptr, ptr, ptr, ptr, ptr, ptr, ptr, ptr, ptr, ptr, ptr, ptr, ptr, ptr, ptr, ptr, ptr, ptr, ptr, ptr, ptr, ptr, ptr, ptr, ptr, ptr, ptr, ptr, ptr, ptr, ptr, ptr, ptr, ptr, ptr, ptr, ptr, ptr, ptr, ptr, ptr, ptr, ptr, ptr, ptr, ptr, ptr, ptr, ptr, ptr, ptr, ptr, ptr, ptr, ptr, ptr, ptr, ptr, ptr, ptr, ptr, ptr, ptr, ptr, ptr, ptr, ptr, ptr, ptr, ptr, ptr }

@.str = private unnamed_addr constant [39 x i8] c"sun/security/smartcardio/PCSCException\00", align 1
@.str.1 = private unnamed_addr constant [7 x i8] c"<init>\00", align 1
@.str.2 = private unnamed_addr constant [5 x i8] c"(I)V\00", align 1
@scardEndTransaction = external global ptr, align 8

; Function Attrs: nounwind uwtable
define hidden void @throwPCSCException(ptr noundef %0, i64 noundef %1) #0 {
  %3 = alloca ptr, align 8
  %4 = alloca i64, align 8
  %5 = alloca ptr, align 8
  %6 = alloca ptr, align 8
  %7 = alloca ptr, align 8
  store ptr %0, ptr %3, align 8
  store i64 %1, ptr %4, align 8
  %8 = load ptr, ptr %3, align 8
  %9 = load ptr, ptr %8, align 8
  %10 = getelementptr inbounds %struct.JNINativeInterface_, ptr %9, i32 0, i32 6
  %11 = load ptr, ptr %10, align 8
  %12 = load ptr, ptr %3, align 8
  %13 = call ptr %11(ptr noundef %12, ptr noundef @.str)
  store ptr %13, ptr %5, align 8
  %14 = load ptr, ptr %5, align 8
  %15 = icmp eq ptr %14, null
  br i1 %15, label %16, label %17

16:                                               ; preds = %2
  br label %49

17:                                               ; preds = %2
  %18 = load ptr, ptr %3, align 8
  %19 = load ptr, ptr %18, align 8
  %20 = getelementptr inbounds %struct.JNINativeInterface_, ptr %19, i32 0, i32 33
  %21 = load ptr, ptr %20, align 8
  %22 = load ptr, ptr %3, align 8
  %23 = load ptr, ptr %5, align 8
  %24 = call ptr %21(ptr noundef %22, ptr noundef %23, ptr noundef @.str.1, ptr noundef @.str.2)
  store ptr %24, ptr %6, align 8
  %25 = load ptr, ptr %6, align 8
  %26 = icmp eq ptr %25, null
  br i1 %26, label %27, label %28

27:                                               ; preds = %17
  br label %49

28:                                               ; preds = %17
  %29 = load ptr, ptr %3, align 8
  %30 = load ptr, ptr %29, align 8
  %31 = getelementptr inbounds %struct.JNINativeInterface_, ptr %30, i32 0, i32 28
  %32 = load ptr, ptr %31, align 8
  %33 = load ptr, ptr %3, align 8
  %34 = load ptr, ptr %5, align 8
  %35 = load ptr, ptr %6, align 8
  %36 = load i64, ptr %4, align 8
  %37 = trunc i64 %36 to i32
  %38 = call ptr (ptr, ptr, ptr, ...) %32(ptr noundef %33, ptr noundef %34, ptr noundef %35, i32 noundef %37)
  store ptr %38, ptr %7, align 8
  %39 = load ptr, ptr %7, align 8
  %40 = icmp ne ptr %39, null
  br i1 %40, label %41, label %49

41:                                               ; preds = %28
  %42 = load ptr, ptr %3, align 8
  %43 = load ptr, ptr %42, align 8
  %44 = getelementptr inbounds %struct.JNINativeInterface_, ptr %43, i32 0, i32 13
  %45 = load ptr, ptr %44, align 8
  %46 = load ptr, ptr %3, align 8
  %47 = load ptr, ptr %7, align 8
  %48 = call i32 %45(ptr noundef %46, ptr noundef %47)
  br label %49

49:                                               ; preds = %41, %28, %27, %16
  ret void
}

; Function Attrs: nounwind uwtable
define hidden zeroext i8 @handleRV(ptr noundef %0, i64 noundef %1) #0 {
  %3 = alloca i8, align 1
  %4 = alloca ptr, align 8
  %5 = alloca i64, align 8
  store ptr %0, ptr %4, align 8
  store i64 %1, ptr %5, align 8
  %6 = load i64, ptr %5, align 8
  %7 = icmp eq i64 %6, 0
  br i1 %7, label %8, label %9

8:                                                ; preds = %2
  store i8 0, ptr %3, align 1
  br label %12

9:                                                ; preds = %2
  %10 = load ptr, ptr %4, align 8
  %11 = load i64, ptr %5, align 8
  call void @throwPCSCException(ptr noundef %10, i64 noundef %11)
  store i8 1, ptr %3, align 1
  br label %12

12:                                               ; preds = %9, %8
  %13 = load i8, ptr %3, align 1
  ret i8 %13
}

; Function Attrs: nounwind uwtable
define void @Java_sun_security_smartcardio_PCSC_SCardEndTransaction(ptr noundef %0, ptr noundef %1, i64 noundef %2, i32 noundef %3) #0 {
  %5 = alloca ptr, align 8
  %6 = alloca ptr, align 8
  %7 = alloca i64, align 8
  %8 = alloca i32, align 4
  %9 = alloca i64, align 8
  %10 = alloca i64, align 8
  store ptr %0, ptr %5, align 8
  store ptr %1, ptr %6, align 8
  store i64 %2, ptr %7, align 8
  store i32 %3, ptr %8, align 4
  %11 = load i64, ptr %7, align 8
  store i64 %11, ptr %9, align 8
  %12 = load ptr, ptr @scardEndTransaction, align 8
  %13 = load i64, ptr %9, align 8
  %14 = load i32, ptr %8, align 4
  %15 = sext i32 %14 to i64
  %16 = call i64 %12(i64 noundef %13, i64 noundef %15)
  store i64 %16, ptr %10, align 8
  %17 = load ptr, ptr %5, align 8
  %18 = load i64, ptr %10, align 8
  %19 = call zeroext i8 @handleRV(ptr noundef %17, i64 noundef %18)
  ret void
}