; Function Attrs: nounwind uwtable
define void @Java_sun_security_smartcardio_PCSC_SCardEndTransaction(ptr noundef %0, ptr nocapture noundef readnone %1, i64 noundef %2, i32 noundef %3) local_unnamed_addr #0 {
  %5 = load ptr, ptr @scardEndTransaction, align 8
  %6 = sext i32 %3 to i64
  %7 = tail call i64 %5(i64 noundef %2, i64 noundef %6) #7
  %8 = icmp eq i64 %7, 0
  br i1 %8, label %handleRV.exit, label %9

9:                                                ; preds = %4
  %10 = load ptr, ptr %0, align 8
  %11 = getelementptr inbounds i8, ptr %10, i64 48
  %12 = load ptr, ptr %11, align 8
  %13 = tail call ptr %12(ptr noundef nonnull %0, ptr noundef nonnull @.str) #7
  %14 = icmp eq ptr %13, null
  br i1 %14, label %handleRV.exit, label %15

15:                                               ; preds = %9
  %16 = load ptr, ptr %0, align 8
  %17 = getelementptr inbounds i8, ptr %16, i64 264
  %18 = load ptr, ptr %17, align 8
  %19 = tail call ptr %18(ptr noundef nonnull %0, ptr noundef nonnull %13, ptr noundef nonnull @.str.1, ptr noundef nonnull @.str.2) #7
  %20 = icmp eq ptr %19, null
  br i1 %20, label %handleRV.exit, label %21

21:                                               ; preds = %15
  %22 = load ptr, ptr %0, align 8
  %23 = getelementptr inbounds i8, ptr %22, i64 224
  %24 = load ptr, ptr %23, align 8
  %25 = trunc i64 %7 to i32
  %26 = tail call ptr (ptr, ptr, ptr, ...) %24(ptr noundef nonnull %0, ptr noundef nonnull %13, ptr noundef nonnull %19, i32 noundef %25) #7
  %.not.i.i = icmp eq ptr %26, null
  br i1 %.not.i.i, label %handleRV.exit, label %27

27:                                               ; preds = %21
  %28 = load ptr, ptr %0, align 8
  %29 = getelementptr inbounds i8, ptr %28, i64 104
  %30 = load ptr, ptr %29, align 8
  %31 = tail call i32 %30(ptr noundef nonnull %0, ptr noundef nonnull %26) #7
  br label %handleRV.exit

handleRV.exit:                                    ; preds = %4, %9, %15, %21, %27
  ret void
}